; ModuleID = 'source-C-CXX/3/746.cpp'
source_filename = "source-C-CXX/3/746.cpp"
target datalayout = "e-m:e-p270:32:32-p271:32:32-p272:64:64-i64:64-f80:128-n8:16:32:64-S128"
target triple = "x86_64-pc-linux-gnu"

%"class.std::ios_base::Init" = type { i8 }
%"class.std::basic_istream" = type { i32 (...)**, i64, %"class.std::basic_ios" }
%"class.std::basic_ios" = type { %"class.std::ios_base", %"class.std::basic_ostream"*, i8, i8, %"class.std::basic_streambuf"*, %"class.std::ctype"*, %"class.std::num_put"*, %"class.std::num_get"* }
%"class.std::ios_base" = type { i32 (...)**, i64, i64, i32, i32, i32, %"struct.std::ios_base::_Callback_list"*, %"struct.std::ios_base::_Words", [8 x %"struct.std::ios_base::_Words"], i32, %"struct.std::ios_base::_Words"*, %"class.std::locale" }
%"struct.std::ios_base::_Callback_list" = type { %"struct.std::ios_base::_Callback_list"*, void (i32, %"class.std::ios_base"*, i32)*, i32, i32 }
%"struct.std::ios_base::_Words" = type { i8*, i64 }
%"class.std::locale" = type { %"class.std::locale::_Impl"* }
%"class.std::locale::_Impl" = type { i32, %"class.std::locale::facet"**, i64, %"class.std::locale::facet"**, i8** }
%"class.std::locale::facet" = type <{ i32 (...)**, i32, [4 x i8] }>
%"class.std::basic_ostream" = type { i32 (...)**, %"class.std::basic_ios" }
%"class.std::basic_streambuf" = type { i32 (...)**, i8*, i8*, i8*, i8*, i8*, i8*, %"class.std::locale" }
%"class.std::ctype" = type <{ %"class.std::locale::facet.base", [4 x i8], %struct.__locale_struct*, i8, [7 x i8], i32*, i32*, i16*, i8, [256 x i8], [256 x i8], i8, [6 x i8] }>
%"class.std::locale::facet.base" = type <{ i32 (...)**, i32 }>
%struct.__locale_struct = type { [13 x %struct.__locale_data*], i16*, i32*, i32*, [13 x i8*] }
%struct.__locale_data = type opaque
%"class.std::num_put" = type { %"class.std::locale::facet.base", [4 x i8] }
%"class.std::num_get" = type { %"class.std::locale::facet.base", [4 x i8] }

@_ZStL8__ioinit = internal global %"class.std::ios_base::Init" zeroinitializer, align 1
@__dso_handle = external hidden global i8
@_ZSt3cin = external global %"class.std::basic_istream", align 8
@_ZSt4cout = external global %"class.std::basic_ostream", align 8
@llvm.global_ctors = appending global [1 x { i32, void ()*, i8* }] [{ i32, void ()*, i8* } { i32 65535, void ()* @_GLOBAL__sub_I_746.cpp, i8* null }]

declare void @_ZNSt8ios_base4InitC1Ev(%"class.std::ios_base::Init"* nonnull align 1 dereferenceable(1)) unnamed_addr #0

; Function Attrs: nounwind
declare void @_ZNSt8ios_base4InitD1Ev(%"class.std::ios_base::Init"* nonnull align 1 dereferenceable(1)) unnamed_addr #1

; Function Attrs: nofree nounwind
declare i32 @__cxa_atexit(void (i8*)*, i8*, i8*) local_unnamed_addr #2

; Function Attrs: mustprogress norecurse sspstrong uwtable
define dso_local i32 @main() local_unnamed_addr #3 {
  %1 = alloca [105 x [105 x i32]], align 16
  %2 = alloca i32, align 4
  %3 = alloca i32, align 4
  %4 = bitcast [105 x [105 x i32]]* %1 to i8*
  call void @llvm.lifetime.start.p0i8(i64 44100, i8* nonnull %4) #8
  call void @llvm.memset.p0i8.i64(i8* noundef nonnull align 16 dereferenceable(44100) %4, i8 0, i64 44100, i1 false)
  %5 = bitcast i32* %2 to i8*
  call void @llvm.lifetime.start.p0i8(i64 4, i8* nonnull %5) #8
  %6 = bitcast i32* %3 to i8*
  call void @llvm.lifetime.start.p0i8(i64 4, i8* nonnull %6) #8
  %7 = call nonnull align 8 dereferenceable(16) %"class.std::basic_istream"* @_ZNSirsERi(%"class.std::basic_istream"* nonnull align 8 dereferenceable(16) @_ZSt3cin, i32* nonnull align 4 dereferenceable(4) %2)
  %8 = call nonnull align 8 dereferenceable(16) %"class.std::basic_istream"* @_ZNSirsERi(%"class.std::basic_istream"* nonnull align 8 dereferenceable(16) %7, i32* nonnull align 4 dereferenceable(4) %3)
  %9 = load i32, i32* %2, align 4, !tbaa !5
  %10 = icmp sgt i32 %9, 0
  %11 = load i32, i32* %3, align 4, !tbaa !5
  %12 = icmp sgt i32 %11, 0
  %13 = select i1 %10, i1 %12, i1 false
  br i1 %13, label %14, label %19

14:                                               ; preds = %0, %29
  %15 = phi i32 [ %30, %29 ], [ %9, %0 ]
  %16 = phi i32 [ %31, %29 ], [ %11, %0 ]
  %17 = phi i64 [ %32, %29 ], [ 0, %0 ]
  %18 = icmp sgt i32 %16, 0
  br i1 %18, label %35, label %29

19:                                               ; preds = %29, %0
  %20 = phi i32 [ %11, %0 ], [ %31, %29 ]
  %21 = phi i32 [ %9, %0 ], [ %30, %29 ]
  %22 = add i32 %21, -1
  %23 = add i32 %22, %20
  %24 = icmp sgt i32 %23, 0
  %25 = icmp sgt i32 %21, 0
  %26 = select i1 %24, i1 %25, i1 false
  br i1 %26, label %43, label %50

27:                                               ; preds = %35
  %28 = load i32, i32* %2, align 4, !tbaa !5
  br label %29

29:                                               ; preds = %27, %14
  %30 = phi i32 [ %28, %27 ], [ %15, %14 ]
  %31 = phi i32 [ %40, %27 ], [ %16, %14 ]
  %32 = add nuw nsw i64 %17, 1
  %33 = sext i32 %30 to i64
  %34 = icmp slt i64 %32, %33
  br i1 %34, label %14, label %19, !llvm.loop !9

35:                                               ; preds = %14, %35
  %36 = phi i64 [ %39, %35 ], [ 0, %14 ]
  %37 = getelementptr inbounds [105 x [105 x i32]], [105 x [105 x i32]]* %1, i64 0, i64 %17, i64 %36
  %38 = call nonnull align 8 dereferenceable(16) %"class.std::basic_istream"* @_ZNSirsERi(%"class.std::basic_istream"* nonnull align 8 dereferenceable(16) @_ZSt3cin, i32* nonnull align 4 dereferenceable(4) %37)
  %39 = add nuw nsw i64 %36, 1
  %40 = load i32, i32* %3, align 4, !tbaa !5
  %41 = sext i32 %40 to i64
  %42 = icmp slt i64 %39, %41
  br i1 %42, label %35, label %27, !llvm.loop !12

43:                                               ; preds = %19, %59
  %44 = phi i32 [ %60, %59 ], [ %20, %19 ]
  %45 = phi i32 [ %61, %59 ], [ %21, %19 ]
  %46 = phi i64 [ %62, %59 ], [ 0, %19 ]
  %47 = icmp sgt i32 %45, 0
  %48 = icmp sgt i32 %44, 0
  %49 = select i1 %47, i1 %48, i1 false
  br i1 %49, label %51, label %59

50:                                               ; preds = %59, %19
  call void @llvm.lifetime.end.p0i8(i64 4, i8* nonnull %6) #8
  call void @llvm.lifetime.end.p0i8(i64 4, i8* nonnull %5) #8
  call void @llvm.lifetime.end.p0i8(i64 44100, i8* nonnull %4) #8
  ret i32 0

51:                                               ; preds = %43, %69
  %52 = phi i32 [ %70, %69 ], [ %44, %43 ]
  %53 = phi i32 [ %71, %69 ], [ %45, %43 ]
  %54 = phi i32 [ %72, %69 ], [ %45, %43 ]
  %55 = phi i32 [ %73, %69 ], [ %44, %43 ]
  %56 = phi i32 [ %74, %69 ], [ %44, %43 ]
  %57 = phi i64 [ %75, %69 ], [ 0, %43 ]
  %58 = icmp sgt i32 %56, 0
  br i1 %58, label %78, label %69

59:                                               ; preds = %69, %43
  %60 = phi i32 [ %44, %43 ], [ %70, %69 ]
  %61 = phi i32 [ %45, %43 ], [ %71, %69 ]
  %62 = add nuw nsw i64 %46, 1
  %63 = add i32 %61, -1
  %64 = add i32 %63, %60
  %65 = sext i32 %64 to i64
  %66 = icmp slt i64 %62, %65
  br i1 %66, label %43, label %50, !llvm.loop !13

67:                                               ; preds = %118
  %68 = load i32, i32* %2, align 4, !tbaa !5
  br label %69

69:                                               ; preds = %67, %51
  %70 = phi i32 [ %119, %67 ], [ %52, %51 ]
  %71 = phi i32 [ %68, %67 ], [ %53, %51 ]
  %72 = phi i32 [ %68, %67 ], [ %54, %51 ]
  %73 = phi i32 [ %120, %67 ], [ %55, %51 ]
  %74 = phi i32 [ %120, %67 ], [ %56, %51 ]
  %75 = add nuw nsw i64 %57, 1
  %76 = sext i32 %72 to i64
  %77 = icmp slt i64 %75, %76
  br i1 %77, label %51, label %59, !llvm.loop !14

78:                                               ; preds = %51, %118
  %79 = phi i32 [ %119, %118 ], [ %52, %51 ]
  %80 = phi i32 [ %120, %118 ], [ %55, %51 ]
  %81 = phi i64 [ %121, %118 ], [ 0, %51 ]
  %82 = add nuw nsw i64 %81, %57
  %83 = icmp eq i64 %82, %46
  br i1 %83, label %84, label %118

84:                                               ; preds = %78
  %85 = getelementptr inbounds [105 x [105 x i32]], [105 x [105 x i32]]* %1, i64 0, i64 %57, i64 %81
  %86 = load i32, i32* %85, align 4, !tbaa !5
  %87 = call nonnull align 8 dereferenceable(8) %"class.std::basic_ostream"* @_ZNSolsEi(%"class.std::basic_ostream"* nonnull align 8 dereferenceable(8) @_ZSt4cout, i32 %86)
  %88 = bitcast %"class.std::basic_ostream"* %87 to i8**
  %89 = load i8*, i8** %88, align 8, !tbaa !15
  %90 = getelementptr i8, i8* %89, i64 -24
  %91 = bitcast i8* %90 to i64*
  %92 = load i64, i64* %91, align 8
  %93 = bitcast %"class.std::basic_ostream"* %87 to i8*
  %94 = add nsw i64 %92, 240
  %95 = getelementptr inbounds i8, i8* %93, i64 %94
  %96 = bitcast i8* %95 to %"class.std::ctype"**
  %97 = load %"class.std::ctype"*, %"class.std::ctype"** %96, align 8, !tbaa !17
  %98 = icmp eq %"class.std::ctype"* %97, null
  br i1 %98, label %99, label %100

99:                                               ; preds = %84
  call void @_ZSt16__throw_bad_castv() #9
  unreachable

100:                                              ; preds = %84
  %101 = getelementptr inbounds %"class.std::ctype", %"class.std::ctype"* %97, i64 0, i32 8
  %102 = load i8, i8* %101, align 8, !tbaa !21
  %103 = icmp eq i8 %102, 0
  br i1 %103, label %107, label %104

104:                                              ; preds = %100
  %105 = getelementptr inbounds %"class.std::ctype", %"class.std::ctype"* %97, i64 0, i32 9, i64 10
  %106 = load i8, i8* %105, align 1, !tbaa !23
  br label %113

107:                                              ; preds = %100
  call void @_ZNKSt5ctypeIcE13_M_widen_initEv(%"class.std::ctype"* nonnull align 8 dereferenceable(570) %97)
  %108 = bitcast %"class.std::ctype"* %97 to i8 (%"class.std::ctype"*, i8)***
  %109 = load i8 (%"class.std::ctype"*, i8)**, i8 (%"class.std::ctype"*, i8)*** %108, align 8, !tbaa !15
  %110 = getelementptr inbounds i8 (%"class.std::ctype"*, i8)*, i8 (%"class.std::ctype"*, i8)** %109, i64 6
  %111 = load i8 (%"class.std::ctype"*, i8)*, i8 (%"class.std::ctype"*, i8)** %110, align 8
  %112 = call signext i8 %111(%"class.std::ctype"* nonnull align 8 dereferenceable(570) %97, i8 signext 10)
  br label %113

113:                                              ; preds = %104, %107
  %114 = phi i8 [ %106, %104 ], [ %112, %107 ]
  %115 = call nonnull align 8 dereferenceable(8) %"class.std::basic_ostream"* @_ZNSo3putEc(%"class.std::basic_ostream"* nonnull align 8 dereferenceable(8) %87, i8 signext %114)
  %116 = call nonnull align 8 dereferenceable(8) %"class.std::basic_ostream"* @_ZNSo5flushEv(%"class.std::basic_ostream"* nonnull align 8 dereferenceable(8) %115)
  %117 = load i32, i32* %3, align 4, !tbaa !5
  br label %118

118:                                              ; preds = %78, %113
  %119 = phi i32 [ %79, %78 ], [ %117, %113 ]
  %120 = phi i32 [ %80, %78 ], [ %117, %113 ]
  %121 = add nuw nsw i64 %81, 1
  %122 = sext i32 %120 to i64
  %123 = icmp slt i64 %121, %122
  br i1 %123, label %78, label %67, !llvm.loop !24
}

; Function Attrs: argmemonly mustprogress nofree nosync nounwind willreturn
declare void @llvm.lifetime.start.p0i8(i64 immarg, i8* nocapture) #4

; Function Attrs: argmemonly mustprogress nofree nounwind willreturn writeonly
declare void @llvm.memset.p0i8.i64(i8* nocapture writeonly, i8, i64, i1 immarg) #5

declare nonnull align 8 dereferenceable(16) %"class.std::basic_istream"* @_ZNSirsERi(%"class.std::basic_istream"* nonnull align 8 dereferenceable(16), i32* nonnull align 4 dereferenceable(4)) local_unnamed_addr #0

; Function Attrs: argmemonly mustprogress nofree nosync nounwind willreturn
declare void @llvm.lifetime.end.p0i8(i64 immarg, i8* nocapture) #4

declare nonnull align 8 dereferenceable(8) %"class.std::basic_ostream"* @_ZNSolsEi(%"class.std::basic_ostream"* nonnull align 8 dereferenceable(8), i32) local_unnamed_addr #0

declare nonnull align 8 dereferenceable(8) %"class.std::basic_ostream"* @_ZNSo3putEc(%"class.std::basic_ostream"* nonnull align 8 dereferenceable(8), i8 signext) local_unnamed_addr #0

declare nonnull align 8 dereferenceable(8) %"class.std::basic_ostream"* @_ZNSo5flushEv(%"class.std::basic_ostream"* nonnull align 8 dereferenceable(8)) local_unnamed_addr #0

; Function Attrs: noreturn
declare void @_ZSt16__throw_bad_castv() local_unnamed_addr #6

declare void @_ZNKSt5ctypeIcE13_M_widen_initEv(%"class.std::ctype"* nonnull align 8 dereferenceable(570)) local_unnamed_addr #0

; Function Attrs: sspstrong uwtable
define internal void @_GLOBAL__sub_I_746.cpp() #7 section ".text.startup" {
  tail call void @_ZNSt8ios_base4InitC1Ev(%"class.std::ios_base::Init"* nonnull align 1 dereferenceable(1) @_ZStL8__ioinit)
  %1 = tail call i32 @__cxa_atexit(void (i8*)* bitcast (void (%"class.std::ios_base::Init"*)* @_ZNSt8ios_base4InitD1Ev to void (i8*)*), i8* getelementptr inbounds (%"class.std::ios_base::Init", %"class.std::ios_base::Init"* @_ZStL8__ioinit, i64 0, i32 0), i8* nonnull @__dso_handle) #8
  ret void
}


!llvm.module.flags = !{!0, !1, !2, !3}
!llvm.ident = !{!4}

!0 = !{i32 1, !"wchar_size", i32 4}
!1 = !{i32 7, !"PIC Level", i32 2}
!2 = !{i32 7, !"PIE Level", i32 2}
!3 = !{i32 7, !"uwtable", i32 1}
!4 = !{!"clang version 13.0.0"}
!5 = !{!6, !6, i64 0}
!6 = !{!"int", !7, i64 0}
!7 = !{!"omnipotent char", !8, i64 0}
!8 = !{!"Simple C++ TBAA"}
!9 = distinct !{!9, !10, !11}
!10 = !{!"llvm.loop.mustprogress"}
!11 = !{!"llvm.loop.unswitch.partial.disable"}
!12 = distinct !{!12, !10}
!13 = distinct !{!13, !10, !11}
!14 = distinct !{!14, !10, !11}
!15 = !{!16, !16, i64 0}
!16 = !{!"vtable pointer", !8, i64 0}
!17 = !{!18, !19, i64 240}
!18 = !{!"_ZTSSt9basic_iosIcSt11char_traitsIcEE", !19, i64 216, !7, i64 224, !20, i64 225, !19, i64 232, !19, i64 240, !19, i64 248, !19, i64 256}
!19 = !{!"any pointer", !7, i64 0}
!20 = !{!"bool", !7, i64 0}
!21 = !{!22, !7, i64 56}
!22 = !{!"_ZTSSt5ctypeIcE", !19, i64 16, !20, i64 24, !19, i64 32, !19, i64 40, !19, i64 48, !7, i64 56, !7, i64 57, !7, i64 313, !7, i64 569}
!23 = !{!7, !7, i64 0}
!24 = distinct !{!24, !10}
